; Function Attrs: mustprogress nounwind uwtable
define hidden void @_ZN7Imf_3_214FlatImageLevel13clearChannelsEv(ptr noundef nonnull align 8 dereferenceable(88) %this) unnamed_addr #4 align 2 personality ptr @__gxx_personality_v0 {
entry:
  %_channels = getelementptr inbounds i8, ptr %this, i64 40
  %_M_left.i.i = getelementptr inbounds i8, ptr %this, i64 64
  %0 = load ptr, ptr %_M_left.i.i, align 8
  %add.ptr.i.i = getelementptr inbounds i8, ptr %this, i64 48
  %cmp.i.not4 = icmp eq ptr %0, %add.ptr.i.i
  br i1 %cmp.i.not4, label %for.end, label %for.body

for.body:                                         ; preds = %entry, %for.inc
  %i.sroa.0.05 = phi ptr [ %call.i, %for.inc ], [ %0, %entry ]
  %second = getelementptr inbounds i8, ptr %i.sroa.0.05, i64 64
  %1 = load ptr, ptr %second, align 8
  %isnull = icmp eq ptr %1, null
  br i1 %isnull, label %for.inc, label %delete.notnull

delete.notnull:                                   ; preds = %for.body
  %vtable = load ptr, ptr %1, align 8
  %vfn = getelementptr inbounds i8, ptr %vtable, i64 16
  %2 = load ptr, ptr %vfn, align 8
  tail call void %2(ptr noundef nonnull align 8 dereferenceable(48) %1) #14
  br label %for.inc

for.inc:                                          ; preds = %for.body, %delete.notnull
  %call.i = tail call noundef ptr @_ZSt18_Rb_tree_incrementPSt18_Rb_tree_node_base(ptr noundef nonnull %i.sroa.0.05) #13
  %cmp.i.not = icmp eq ptr %call.i, %add.ptr.i.i
  br i1 %cmp.i.not, label %for.end, label %for.body, !llvm.loop !6

for.end:                                          ; preds = %for.inc, %entry
  %_M_parent.i.i.i.i = getelementptr inbounds i8, ptr %this, i64 56
  %3 = load ptr, ptr %_M_parent.i.i.i.i, align 8
  invoke void @_ZNSt8_Rb_treeINSt7__cxx1112basic_stringIcSt11char_traitsIcESaIcEEESt4pairIKS5_PN7Imf_3_216FlatImageChannelEESt10_Select1stISB_ESt4lessIS5_ESaISB_EE8_M_eraseEPSt13_Rb_tree_nodeISB_E(ptr noundef nonnull align 8 dereferenceable(48) %_channels, ptr noundef %3)
          to label %_ZNSt3mapINSt7__cxx1112basic_stringIcSt11char_traitsIcESaIcEEEPN7Imf_3_216FlatImageChannelESt4lessIS5_ESaISt4pairIKS5_S8_EEE5clearEv.exit unwind label %terminate.lpad.i.i

terminate.lpad.i.i:                               ; preds = %for.end
  %4 = landingpad { ptr, i32 }
          catch ptr null
  %5 = extractvalue { ptr, i32 } %4, 0
  tail call void @__clang_call_terminate(ptr %5) #15
  unreachable

_ZNSt3mapINSt7__cxx1112basic_stringIcSt11char_traitsIcESaIcEEEPN7Imf_3_216FlatImageChannelESt4lessIS5_ESaISt4pairIKS5_S8_EEE5clearEv.exit: ; preds = %for.end
  store ptr null, ptr %_M_parent.i.i.i.i, align 8
  store ptr %add.ptr.i.i, ptr %_M_left.i.i, align 8
  %_M_right.i.i.i = getelementptr inbounds i8, ptr %this, i64 72
  store ptr %add.ptr.i.i, ptr %_M_right.i.i.i, align 8
  %_M_node_count.i.i.i = getelementptr inbounds i8, ptr %this, i64 80
  store i64 0, ptr %_M_node_count.i.i.i, align 8
  ret void
}